; Function Attrs: mustprogress uwtable
define void @_ZN34BluetoothAttServerAttributesDialog32on_tableTreeWidget_itemActivatedEP15QTreeWidgetItemi(ptr noundef nonnull align 8 dereferenceable(208) %0, ptr noundef %1, i32 noundef %2) local_unnamed_addr #0 align 2 personality ptr @__gxx_personality_v0 {
  %4 = alloca %class.QVariant, align 8
  %5 = getelementptr inbounds i8, ptr %0, i64 72
  %6 = load i8, ptr %5, align 8
  %7 = and i8 %6, 1
  %.not = icmp eq i8 %7, 0
  br i1 %.not, label %8, label %13

8:                                                ; preds = %3
  %9 = load ptr, ptr %1, align 8
  %10 = getelementptr inbounds i8, ptr %9, i64 24
  %11 = load ptr, ptr %10, align 8
  call void %11(ptr dead_on_unwind nonnull writable sret(%class.QVariant) align 8 %4, ptr noundef nonnull align 8 dereferenceable(92) %1, i32 noundef 0, i32 noundef 256)
  %12 = invoke noundef i32 @_Z13qvariant_castIjET_RK8QVariant(ptr noundef nonnull align 8 dereferenceable(32) %4)
          to label %_ZNK8QVariant5valueIjEET_v.exit unwind label %14

_ZNK8QVariant5valueIjEET_v.exit:                  ; preds = %8
  call void @_ZN8QVariantD1Ev(ptr noundef nonnull align 8 dereferenceable(32) %4) #17
  call void @_ZN34BluetoothAttServerAttributesDialog10goToPacketEi(ptr noundef nonnull align 8 dereferenceable(208) %0, i32 noundef %12)
  br label %13

13:                                               ; preds = %3, %_ZNK8QVariant5valueIjEET_v.exit
  ret void

14:                                               ; preds = %8
  %15 = landingpad { ptr, i32 }
          cleanup
  call void @_ZN8QVariantD1Ev(ptr noundef nonnull align 8 dereferenceable(32) %4) #17
  resume { ptr, i32 } %15
}